target datalayout = "e-m:e-p270:32:32-p271:32:32-p272:64:64-i64:64-i128:128-f80:128-n8:16:32:64-S128"
target triple = "x86_64-pc-linux-gnu"

; Function Attrs: nounwind sspstrong uwtable
define internal void @ins_methods_push(i64 noundef %0, i64 noundef %1) #0 {
  %3 = alloca i64, align 8
  %4 = alloca i64, align 8
  store i64 %0, ptr %3, align 8, !tbaa !7
  store i64 %1, ptr %4, align 8, !tbaa !7
  %5 = load i64, ptr %4, align 8, !tbaa !7
  %6 = load i64, ptr %3, align 8, !tbaa !7
  %7 = call i64 @rb_id2sym(i64 noundef %6)
  %8 = call i64 @rb_ary_push(i64 noundef %5, i64 noundef %7)
  ret void
}

; Function Attrs: nounwind sspstrong uwtable
define internal i32 @ins_methods_i(i64 noundef %0, i64 noundef %1, i64 noundef %2) #0 {
  %4 = alloca i64, align 8
  %5 = alloca i64, align 8
  %6 = alloca i64, align 8
  store i64 %0, ptr %4, align 8, !tbaa !7
  store i64 %1, ptr %5, align 8, !tbaa !7
  store i64 %2, ptr %6, align 8, !tbaa !7
  %7 = load i64, ptr %5, align 8, !tbaa !7
  %8 = trunc i64 %7 to i32
  switch i32 %8, label %10 [
    i32 0, label %9
    i32 2, label %9
  ]

9:                                                ; preds = %3, %3
  br label %13

10:                                               ; preds = %3
  %11 = load i64, ptr %4, align 8, !tbaa !7
  %12 = load i64, ptr %6, align 8, !tbaa !7
  call void @ins_methods_push(i64 noundef %11, i64 noundef %12)
  br label %13

13:                                               ; preds = %10, %9
  ret i32 0
}