; Function Attrs: nounwind sspstrong uwtable
define internal noundef i32 @ins_methods_i(i64 noundef %0, i64 noundef %1, i64 noundef %2) #0 {
  %4 = trunc i64 %1 to i32
  switch i32 %4, label %5 [
    i32 0, label %8
    i32 2, label %8
  ]

5:                                                ; preds = %3
  %6 = tail call i64 @rb_id2sym(i64 noundef %0) #19
  %7 = tail call i64 @rb_ary_push(i64 noundef %2, i64 noundef %6) #19
  br label %8

8:                                                ; preds = %3, %3, %5
  ret i32 0
}